target datalayout = "e-m:e-p270:32:32-p271:32:32-p272:64:64-i64:64-i128:128-f80:128-n8:16:32:64-S128"
target triple = "x86_64-pc-linux-gnu"

@SAVED_GROUP_ID = internal global i32 -1, align 4
@rb_eRuntimeError = external global i64, align 8
@under_gid_switch = internal global i32 0, align 4
@.str.229 = private unnamed_addr constant [76 x i8] c"can't handle GID while evaluating block given to Process::UID.switch method\00", align 1

; Function Attrs: inlinehint nounwind sspstrong willreturn memory(none) uwtable
define internal i64 @RB_INT2FIX(i64 noundef %0) #4 {
  %2 = alloca i64, align 8
  %3 = alloca i64, align 8
  %4 = alloca i64, align 8
  %5 = alloca i64, align 8
  %6 = alloca i64, align 8
  %7 = alloca i64, align 8
  store i64 %0, ptr %2, align 8, !tbaa !35
  call void @llvm.lifetime.start.p0(i64 8, ptr %3) #27
  %8 = load i64, ptr %2, align 8, !tbaa !35
  store i64 %8, ptr %3, align 8, !tbaa !35
  call void @llvm.lifetime.start.p0(i64 8, ptr %4) #27
  %9 = load i64, ptr %3, align 8, !tbaa !35
  %10 = shl i64 %9, 1
  %11 = add i64 %10, 1
  store i64 %11, ptr %4, align 8, !tbaa !35
  call void @llvm.lifetime.start.p0(i64 8, ptr %5) #27
  %12 = load i64, ptr %4, align 8, !tbaa !35
  store i64 %12, ptr %5, align 8, !tbaa !35
  call void @llvm.lifetime.start.p0(i64 8, ptr %6) #27
  %13 = load i64, ptr %5, align 8, !tbaa !35
  store i64 %13, ptr %6, align 8, !tbaa !35
  call void @llvm.lifetime.start.p0(i64 8, ptr %7) #27
  %14 = load i64, ptr %6, align 8, !tbaa !35
  store i64 %14, ptr %7, align 8, !tbaa !35
  %15 = load i64, ptr %7, align 8, !tbaa !35
  call void @llvm.lifetime.end.p0(i64 8, ptr %7) #27
  call void @llvm.lifetime.end.p0(i64 8, ptr %6) #27
  call void @llvm.lifetime.end.p0(i64 8, ptr %5) #27
  call void @llvm.lifetime.end.p0(i64 8, ptr %4) #27
  call void @llvm.lifetime.end.p0(i64 8, ptr %3) #27
  ret i64 %15
}

; Function Attrs: inlinehint nounwind sspstrong uwtable
define internal i64 @rb_uint2num_inline(i32 noundef %0) #1 {
  %2 = alloca i64, align 8
  %3 = alloca i32, align 4
  store i32 %0, ptr %3, align 4, !tbaa !34
  %4 = load i32, ptr %3, align 4, !tbaa !34
  %5 = zext i32 %4 to i64
  %6 = icmp slt i64 %5, 4611686018427387904
  br i1 %6, label %7, label %11

7:                                                ; preds = %1
  %8 = load i32, ptr %3, align 4, !tbaa !34
  %9 = zext i32 %8 to i64
  %10 = call i64 @RB_INT2FIX(i64 noundef %9) #28
  store i64 %10, ptr %2, align 8
  br label %15

11:                                               ; preds = %1
  %12 = load i32, ptr %3, align 4, !tbaa !34
  %13 = zext i32 %12 to i64
  %14 = call i64 @rb_uint2big(i64 noundef %13)
  store i64 %14, ptr %2, align 8
  br label %15

15:                                               ; preds = %11, %7
  %16 = load i64, ptr %2, align 8
  ret i64 %16
}

; Function Attrs: nounwind sspstrong uwtable
define internal void @check_gid_switch() #0 {
  %1 = load i32, ptr @under_gid_switch, align 4, !tbaa !34
  %2 = icmp ne i32 %1, 0
  br i1 %2, label %3, label %5

3:                                                ; preds = %0
  %4 = load i64, ptr @rb_eRuntimeError, align 8, !tbaa !35
  call void (i64, ptr, ...) @rb_raise(i64 noundef %4, ptr noundef @.str.229) #30
  unreachable

5:                                                ; preds = %0
  ret void
}

; Function Attrs: nounwind sspstrong uwtable
define internal i64 @p_gid_switch(i64 noundef %0) #0 {
  %2 = alloca i64, align 8
  %3 = alloca i64, align 8
  %4 = alloca i32, align 4
  %5 = alloca i32, align 4
  %6 = alloca i32, align 4
  store i64 %0, ptr %3, align 8, !tbaa !35
  call void @llvm.lifetime.start.p0(i64 4, ptr %4) #27
  call void @llvm.lifetime.start.p0(i64 4, ptr %5) #27
  call void @check_gid_switch()
  %7 = call i32 @getgid() #27
  store i32 %7, ptr %4, align 4, !tbaa !34
  %8 = call i32 @getegid() #27
  store i32 %8, ptr %5, align 4, !tbaa !34
  %9 = load i32, ptr %4, align 4, !tbaa !34
  %10 = load i32, ptr %5, align 4, !tbaa !34
  %11 = icmp ne i32 %9, %10
  br i1 %11, label %12, label %26

12:                                               ; preds = %1
  %13 = load i64, ptr %3, align 8, !tbaa !35
  %14 = load i32, ptr %4, align 4, !tbaa !34
  %15 = call i64 @rb_uint2num_inline(i32 noundef %14)
  %16 = call i64 @proc_setegid(i64 noundef %13, i64 noundef %15)
  %17 = call i32 @rb_block_given_p()
  %18 = icmp ne i32 %17, 0
  br i1 %18, label %19, label %23

19:                                               ; preds = %12
  store i32 1, ptr @under_gid_switch, align 4, !tbaa !34
  %20 = load i32, ptr @SAVED_GROUP_ID, align 4, !tbaa !34
  %21 = zext i32 %20 to i64
  %22 = call i64 @rb_ensure(ptr noundef @rb_yield, i64 noundef 4, ptr noundef @p_gid_sw_ensure, i64 noundef %21)
  store i64 %22, ptr %2, align 8
  store i32 1, ptr %6, align 4
  br label %45

23:                                               ; preds = %12
  %24 = load i32, ptr %5, align 4, !tbaa !34
  %25 = call i64 @rb_uint2num_inline(i32 noundef %24)
  store i64 %25, ptr %2, align 8
  store i32 1, ptr %6, align 4
  br label %45

26:                                               ; preds = %1
  %27 = load i32, ptr %5, align 4, !tbaa !34
  %28 = load i32, ptr @SAVED_GROUP_ID, align 4, !tbaa !34
  %29 = icmp ne i32 %27, %28
  br i1 %29, label %30, label %44

30:                                               ; preds = %26
  %31 = load i64, ptr %3, align 8, !tbaa !35
  %32 = load i32, ptr @SAVED_GROUP_ID, align 4, !tbaa !34
  %33 = call i64 @rb_uint2num_inline(i32 noundef %32)
  %34 = call i64 @proc_setegid(i64 noundef %31, i64 noundef %33)
  %35 = call i32 @rb_block_given_p()
  %36 = icmp ne i32 %35, 0
  br i1 %36, label %37, label %41

37:                                               ; preds = %30
  store i32 1, ptr @under_gid_switch, align 4, !tbaa !34
  %38 = load i32, ptr %5, align 4, !tbaa !34
  %39 = zext i32 %38 to i64
  %40 = call i64 @rb_ensure(ptr noundef @rb_yield, i64 noundef 4, ptr noundef @p_gid_sw_ensure, i64 noundef %39)
  store i64 %40, ptr %2, align 8
  store i32 1, ptr %6, align 4
  br label %45

41:                                               ; preds = %30
  %42 = load i32, ptr %4, align 4, !tbaa !34
  %43 = call i64 @rb_uint2num_inline(i32 noundef %42)
  store i64 %43, ptr %2, align 8
  store i32 1, ptr %6, align 4
  br label %45

44:                                               ; preds = %26
  call void @rb_syserr_fail(i32 noundef 1, ptr noundef null) #30
  unreachable

45:                                               ; preds = %41, %37, %23, %19
  call void @llvm.lifetime.end.p0(i64 4, ptr %5) #27
  call void @llvm.lifetime.end.p0(i64 4, ptr %4) #27
  %46 = load i64, ptr %2, align 8
  ret i64 %46
}