; Function Attrs: nounwind sspstrong uwtable
define internal i64 @p_gid_switch(i64 %0) #1 {
  %.b.i = load i1, ptr @under_gid_switch, align 4
  br i1 %.b.i, label %2, label %check_gid_switch.exit

2:                                                ; preds = %1
  %3 = load i64, ptr @rb_eRuntimeError, align 8, !tbaa !43
  tail call void (i64, ptr, ...) @rb_raise(i64 noundef %3, ptr noundef nonnull @.str.229) #29
  unreachable

check_gid_switch.exit:                            ; preds = %1
  %4 = tail call i32 @getgid() #27
  %5 = tail call i32 @getegid() #27
  %.not = icmp eq i32 %4, %5
  br i1 %.not, label %20, label %6

6:                                                ; preds = %check_gid_switch.exit
  %7 = zext i32 %4 to i64
  %8 = shl nuw nsw i64 %7, 1
  %9 = or disjoint i64 %8, 1
  %10 = tail call i64 @proc_setegid(i64 poison, i64 noundef %9)
  %11 = tail call i32 @rb_block_given_p() #27
  %.not16 = icmp eq i32 %11, 0
  br i1 %.not16, label %16, label %12

12:                                               ; preds = %6
  store i1 true, ptr @under_gid_switch, align 4
  %13 = load i32, ptr @SAVED_GROUP_ID, align 4, !tbaa !60
  %14 = zext i32 %13 to i64
  %15 = tail call i64 @rb_ensure(ptr noundef nonnull @rb_yield, i64 noundef 4, ptr noundef nonnull @p_gid_sw_ensure, i64 noundef %14) #27
  br label %36

16:                                               ; preds = %6
  %17 = zext i32 %5 to i64
  %18 = shl nuw nsw i64 %17, 1
  %19 = or disjoint i64 %18, 1
  br label %36

20:                                               ; preds = %check_gid_switch.exit
  %21 = load i32, ptr @SAVED_GROUP_ID, align 4, !tbaa !60
  %.not14 = icmp eq i32 %4, %21
  br i1 %.not14, label %35, label %22

22:                                               ; preds = %20
  %23 = zext i32 %21 to i64
  %24 = shl nuw nsw i64 %23, 1
  %25 = or disjoint i64 %24, 1
  %26 = tail call i64 @proc_setegid(i64 poison, i64 noundef %25)
  %27 = tail call i32 @rb_block_given_p() #27
  %.not15 = icmp eq i32 %27, 0
  br i1 %.not15, label %31, label %28

28:                                               ; preds = %22
  store i1 true, ptr @under_gid_switch, align 4
  %29 = zext i32 %4 to i64
  %30 = tail call i64 @rb_ensure(ptr noundef nonnull @rb_yield, i64 noundef 4, ptr noundef nonnull @p_gid_sw_ensure, i64 noundef %29) #27
  br label %36

31:                                               ; preds = %22
  %32 = zext i32 %4 to i64
  %33 = shl nuw nsw i64 %32, 1
  %34 = or disjoint i64 %33, 1
  br label %36

35:                                               ; preds = %20
  tail call void @rb_syserr_fail(i32 noundef 1, ptr noundef null) #29
  unreachable

36:                                               ; preds = %31, %28, %16, %12
  %.0 = phi i64 [ %15, %12 ], [ %19, %16 ], [ %30, %28 ], [ %34, %31 ]
  ret i64 %.0
}